; Function Attrs: mustprogress nofree norecurse nosync nounwind willreturn memory(read, inaccessiblemem: none) uwtable
define noundef double @_ZNK18colvar_grid_scalar17minimum_pos_valueEv(ptr noundef nonnull readonly align 8 captures(none) dereferenceable(712) %0) local_unnamed_addr #18 align 2 {
  %2 = getelementptr inbounds nuw i8, ptr %0, i64 392
  %3 = load ptr, ptr %2, align 8, !tbaa !89
  %4 = load double, ptr %3, align 8, !tbaa !90
  %5 = getelementptr inbounds nuw i8, ptr %0, i64 384
  %6 = load i64, ptr %5, align 8, !tbaa !358
  %.not = icmp eq i64 %6, 0
  br i1 %.not, label %._crit_edge22, label %.lr.ph

7:                                                ; preds = %.lr.ph
  %8 = add nuw i64 %.013, 1
  %exitcond.not = icmp eq i64 %8, %6
  br i1 %exitcond.not, label %.lr.ph21.preheader, label %.lr.ph, !llvm.loop !504

.lr.ph:                                           ; preds = %1, %7
  %.013 = phi i64 [ %8, %7 ], [ 0, %1 ]
  %9 = getelementptr inbounds nuw double, ptr %3, i64 %.013
  %10 = load double, ptr %9, align 8, !tbaa !90
  %11 = fcmp ogt double %10, 0.000000e+00
  br i1 %11, label %.lr.ph21.preheader, label %7

.lr.ph21.preheader:                               ; preds = %7, %.lr.ph
  %.11218.ph = phi double [ %10, %.lr.ph ], [ %4, %7 ]
  br label %.lr.ph21

.lr.ph21:                                         ; preds = %.lr.ph21.preheader, %.lr.ph21
  %.119 = phi i64 [ %16, %.lr.ph21 ], [ 0, %.lr.ph21.preheader ]
  %.11218 = phi double [ %.2, %.lr.ph21 ], [ %.11218.ph, %.lr.ph21.preheader ]
  %12 = getelementptr inbounds nuw double, ptr %3, i64 %.119
  %13 = load double, ptr %12, align 8, !tbaa !90
  %14 = fcmp ogt double %13, 0.000000e+00
  %15 = fcmp olt double %13, %.11218
  %or.cond = select i1 %14, i1 %15, i1 false
  %.2 = select i1 %or.cond, double %13, double %.11218
  %16 = add nuw i64 %.119, 1
  %exitcond25.not = icmp eq i64 %16, %6
  br i1 %exitcond25.not, label %._crit_edge22, label %.lr.ph21, !llvm.loop !505

._crit_edge22:                                    ; preds = %.lr.ph21, %1
  %.112.lcssa = phi double [ %4, %1 ], [ %.2, %.lr.ph21 ]
  ret double %.112.lcssa
}